target datalayout = "e-m:e-p270:32:32-p271:32:32-p272:64:64-i64:64-i128:128-f80:128-n8:16:32:64-S128"
target triple = "x86_64-pc-linux-gnu"

@hf_gsm_a_rr_extended_ra = internal global i32 0, align 4
@hf_gsm_a_rr_rcc = internal global i32 0, align 4
@hf_gsm_a_rr_extended_ra_present = internal global i32 0, align 4
@hf_gsm_a_rr_additions_in_rel_13 = internal global i32 0, align 4

; Function Attrs: null_pointer_is_valid sspstrong uwtable
define internal zeroext i1 @gsm_rr_csn_flag(ptr noundef %0, ptr noundef %1, i32 noundef %2, i32 noundef %3) #1 {
  %5 = alloca ptr, align 8
  %6 = alloca ptr, align 8
  %7 = alloca i32, align 4
  %8 = alloca i32, align 4
  %9 = alloca i8, align 1
  %10 = alloca i8, align 1
  store ptr %0, ptr %5, align 8
  store ptr %1, ptr %6, align 8
  store i32 %2, ptr %7, align 4
  store i32 %3, ptr %8, align 4
  call void @llvm.lifetime.start.p0(i64 1, ptr %9) #11
  %11 = load i32, ptr %7, align 4
  %12 = srem i32 %11, 8
  %13 = ashr i32 128, %12
  %14 = trunc i32 %13 to i8
  store i8 %14, ptr %9, align 1
  call void @llvm.lifetime.start.p0(i64 1, ptr %10) #11
  %15 = load ptr, ptr %5, align 8
  %16 = load i32, ptr %7, align 4
  %17 = ashr i32 %16, 3
  %18 = call zeroext i8 @tvb_get_uint8(ptr noundef %15, i32 noundef %17)
  store i8 %18, ptr %10, align 1
  %19 = load ptr, ptr %6, align 8
  %20 = load i32, ptr %8, align 4
  %21 = load ptr, ptr %5, align 8
  %22 = load i32, ptr %7, align 4
  %23 = call ptr @proto_tree_add_bits_item(ptr noundef %19, i32 noundef %20, ptr noundef %21, i32 noundef %22, i32 noundef 1, i32 noundef 0)
  %24 = load i8, ptr %10, align 1
  %25 = zext i8 %24 to i32
  %26 = load i8, ptr %9, align 1
  %27 = zext i8 %26 to i32
  %28 = and i32 %25, %27
  %29 = icmp ne i32 %28, 0
  call void @llvm.lifetime.end.p0(i64 1, ptr %10) #11
  call void @llvm.lifetime.end.p0(i64 1, ptr %9) #11
  ret i1 %29
}

; Function Attrs: null_pointer_is_valid sspstrong uwtable
define internal zeroext i16 @de_rr_iar_rest_oct(ptr noundef %0, ptr noundef %1, ptr noundef %2, i32 noundef %3, i32 noundef %4, ptr noundef %5, i32 noundef %6) #1 {
  %8 = alloca ptr, align 8
  %9 = alloca ptr, align 8
  %10 = alloca ptr, align 8
  %11 = alloca i32, align 4
  %12 = alloca i32, align 4
  %13 = alloca ptr, align 8
  %14 = alloca i32, align 4
  %15 = alloca i32, align 4
  %16 = alloca i8, align 1
  %17 = alloca i8, align 1
  %18 = alloca i8, align 1
  store ptr %0, ptr %8, align 8
  store ptr %1, ptr %9, align 8
  store ptr %2, ptr %10, align 8
  store i32 %3, ptr %11, align 4
  store i32 %4, ptr %12, align 4
  store ptr %5, ptr %13, align 8
  store i32 %6, ptr %14, align 4
  call void @llvm.lifetime.start.p0(i64 4, ptr %15) #11
  call void @llvm.lifetime.start.p0(i64 1, ptr %16) #11
  call void @llvm.lifetime.start.p0(i64 1, ptr %17) #11
  store i8 0, ptr %17, align 1
  call void @llvm.lifetime.start.p0(i64 1, ptr %18) #11
  %19 = load ptr, ptr %8, align 8
  %20 = call i32 @tvb_reported_length(ptr noundef %19)
  %21 = trunc i32 %20 to i8
  store i8 %21, ptr %18, align 1
  %22 = load i32, ptr %11, align 4
  %23 = shl i32 %22, 3
  store i32 %23, ptr %15, align 4
  store i8 0, ptr %16, align 1
  br label %24

24:                                               ; preds = %48, %7
  %25 = load i8, ptr %16, align 1
  %26 = zext i8 %25 to i32
  %27 = icmp slt i32 %26, 4
  br i1 %27, label %28, label %51

28:                                               ; preds = %24
  %29 = load ptr, ptr %8, align 8
  %30 = load ptr, ptr %9, align 8
  %31 = load i32, ptr %15, align 4
  %32 = add i32 %31, 1
  store i32 %32, ptr %15, align 4
  %33 = load i32, ptr @hf_gsm_a_rr_extended_ra_present, align 4
  %34 = call zeroext i1 @gsm_rr_csn_flag(ptr noundef %29, ptr noundef %30, i32 noundef %31, i32 noundef %33)
  br i1 %34, label %35, label %47

35:                                               ; preds = %28
  %36 = load ptr, ptr %9, align 8
  %37 = load i32, ptr @hf_gsm_a_rr_extended_ra, align 4
  %38 = load ptr, ptr %8, align 8
  %39 = load i32, ptr %15, align 4
  %40 = call ptr @proto_tree_add_bits_item(ptr noundef %36, i32 noundef %37, ptr noundef %38, i32 noundef %39, i32 noundef 5, i32 noundef 0)
  %41 = load i32, ptr %15, align 4
  %42 = add i32 %41, 5
  store i32 %42, ptr %15, align 4
  %43 = load i8, ptr %17, align 1
  %44 = zext i8 %43 to i32
  %45 = add i32 %44, 1
  %46 = trunc i32 %45 to i8
  store i8 %46, ptr %17, align 1
  br label %47

47:                                               ; preds = %35, %28
  br label %48

48:                                               ; preds = %47
  %49 = load i8, ptr %16, align 1
  %50 = add i8 %49, 1
  store i8 %50, ptr %16, align 1
  br label %24, !llvm.loop !33

51:                                               ; preds = %24
  %52 = load i8, ptr %17, align 1
  %53 = zext i8 %52 to i32
  %54 = icmp slt i32 %53, 4
  br i1 %54, label %55, label %71

55:                                               ; preds = %51
  %56 = load ptr, ptr %8, align 8
  %57 = load ptr, ptr %9, align 8
  %58 = load i32, ptr %15, align 4
  %59 = add i32 %58, 1
  store i32 %59, ptr %15, align 4
  %60 = load i32, ptr @hf_gsm_a_rr_additions_in_rel_13, align 4
  %61 = call zeroext i1 @gsm_rr_csn_HL_flag(ptr noundef %56, ptr noundef %57, i32 noundef 0, i32 noundef %58, i32 noundef %60)
  br i1 %61, label %62, label %70

62:                                               ; preds = %55
  %63 = load ptr, ptr %9, align 8
  %64 = load i32, ptr @hf_gsm_a_rr_rcc, align 4
  %65 = load ptr, ptr %8, align 8
  %66 = load i32, ptr %15, align 4
  %67 = call ptr @proto_tree_add_bits_item(ptr noundef %63, i32 noundef %64, ptr noundef %65, i32 noundef %66, i32 noundef 3, i32 noundef 0)
  %68 = load i32, ptr %15, align 4
  %69 = add i32 %68, 3
  store i32 %69, ptr %15, align 4
  br label %70

70:                                               ; preds = %62, %55
  br label %71

71:                                               ; preds = %70, %51
  %72 = load ptr, ptr %9, align 8
  %73 = load ptr, ptr %8, align 8
  %74 = load i32, ptr %15, align 4
  %75 = trunc i32 %74 to i16
  %76 = load i8, ptr %18, align 1
  call void @gsm_rr_padding_bits(ptr noundef %72, ptr noundef %73, i16 noundef zeroext %75, i8 noundef zeroext %76, i8 noundef zeroext 43)
  %77 = load i8, ptr %18, align 1
  %78 = zext i8 %77 to i32
  %79 = load i32, ptr %11, align 4
  %80 = sub i32 %78, %79
  %81 = trunc i32 %80 to i16
  call void @llvm.lifetime.end.p0(i64 1, ptr %18) #11
  call void @llvm.lifetime.end.p0(i64 1, ptr %17) #11
  call void @llvm.lifetime.end.p0(i64 1, ptr %16) #11
  call void @llvm.lifetime.end.p0(i64 4, ptr %15) #11
  ret i16 %81
}