; Function Attrs: null_pointer_is_valid sspstrong uwtable
define internal zeroext i16 @de_rr_iar_rest_oct(ptr noundef %0, ptr noundef %1, ptr readnone captures(none) %2, i32 noundef %3, i32 %4, ptr readnone captures(none) %5, i32 %6) #3 {
  %8 = tail call i32 @tvb_reported_length(ptr noundef %0)
  %9 = shl i32 %3, 3
  br label %10

10:                                               ; preds = %7, %25
  %.030 = phi i32 [ %9, %7 ], [ %.1, %25 ]
  %.02529 = phi i8 [ 0, %7 ], [ %.126, %25 ]
  %.02728 = phi i8 [ 0, %7 ], [ %26, %25 ]
  %11 = add i32 %.030, 1
  %12 = load i32, ptr @hf_gsm_a_rr_extended_ra_present, align 4
  %13 = and i32 %.030, 7
  %14 = lshr exact i32 128, %13
  %15 = ashr i32 %.030, 3
  %16 = tail call zeroext i8 @tvb_get_uint8(ptr noundef %0, i32 noundef %15)
  %17 = tail call ptr @proto_tree_add_bits_item(ptr noundef %1, i32 noundef %12, ptr noundef %0, i32 noundef %.030, i32 noundef 1, i32 noundef 0)
  %18 = zext i8 %16 to i32
  %19 = and i32 %14, %18
  %.not = icmp eq i32 %19, 0
  br i1 %.not, label %25, label %20

20:                                               ; preds = %10
  %21 = load i32, ptr @hf_gsm_a_rr_extended_ra, align 4
  %22 = tail call ptr @proto_tree_add_bits_item(ptr noundef %1, i32 noundef %21, ptr noundef %0, i32 noundef %11, i32 noundef 5, i32 noundef 0)
  %23 = add i32 %.030, 6
  %24 = add i8 %.02529, 1
  br label %25

25:                                               ; preds = %10, %20
  %.126 = phi i8 [ %24, %20 ], [ %.02529, %10 ]
  %.1 = phi i32 [ %23, %20 ], [ %11, %10 ]
  %26 = add nuw nsw i8 %.02728, 1
  %exitcond.not = icmp eq i8 %26, 4
  br i1 %exitcond.not, label %27, label %10, !llvm.loop !33

27:                                               ; preds = %25
  %28 = icmp ult i8 %.126, 4
  br i1 %28, label %29, label %37

29:                                               ; preds = %27
  %30 = add i32 %.1, 1
  %31 = load i32, ptr @hf_gsm_a_rr_additions_in_rel_13, align 4
  %32 = tail call fastcc zeroext i1 @gsm_rr_csn_HL_flag(ptr noundef %0, ptr noundef %1, i32 noundef 0, i32 noundef %.1, i32 noundef %31)
  br i1 %32, label %33, label %37

33:                                               ; preds = %29
  %34 = load i32, ptr @hf_gsm_a_rr_rcc, align 4
  %35 = tail call ptr @proto_tree_add_bits_item(ptr noundef %1, i32 noundef %34, ptr noundef %0, i32 noundef %30, i32 noundef 3, i32 noundef 0)
  %36 = add i32 %.1, 4
  br label %37

37:                                               ; preds = %29, %33, %27
  %.2 = phi i32 [ %36, %33 ], [ %30, %29 ], [ %.1, %27 ]
  %38 = trunc i32 %8 to i8
  %39 = trunc i32 %.2 to i16
  tail call fastcc void @gsm_rr_padding_bits(ptr noundef %1, ptr noundef %0, i16 noundef zeroext %39, i8 noundef zeroext %38, i8 noundef zeroext 43)
  %40 = and i32 %8, 255
  %41 = sub i32 %40, %3
  %42 = trunc i32 %41 to i16
  ret i16 %42
}